target datalayout = "e-m:e-p270:32:32-p271:32:32-p272:64:64-i64:64-i128:128-f80:128-n8:16:32:64-S128"
target triple = "x86_64-unknown-linux-gnu"

%struct.MemoryRegion = type { %struct.Object, i8, i8, i8, i8, i8, i8, i8, i8, i8, i8, ptr, ptr, ptr, ptr, ptr, ptr, i32, i128, i64, ptr, i64, i8, i8, i8, i8, i8, ptr, i64, i32, %union.anon, %union.anon.1, %union.anon.2, ptr, i32, ptr, ptr, i8 }
%struct.Object = type { ptr, ptr, ptr, i32, ptr }
%union.anon = type { %struct.QTailQLink }
%struct.QTailQLink = type { ptr, ptr }
%union.anon.1 = type { %struct.QTailQLink }
%union.anon.2 = type { %struct.QTailQLink }
%struct.MemoryRegionOps = type { ptr, ptr, ptr, ptr, i32, %struct.anon.16, %struct.anon.17 }
%struct.anon.16 = type { i32, i32, i8, ptr }
%struct.anon.17 = type { i32, i32, i8 }
%struct.MemTxAttrs = type { i32 }
%struct.MemoryRegionSection = type { i128, ptr, ptr, i64, i64, i8, i8, i8 }

; Function Attrs: nounwind sspstrong uwtable
define internal i32 @clz64(i64 noundef %val) #0 {
entry:
  %val.addr = alloca i64, align 8
  store i64 %val, ptr %val.addr, align 8
  %0 = load i64, ptr %val.addr, align 8
  %tobool = icmp ne i64 %0, 0
  br i1 %tobool, label %cond.true, label %cond.false

cond.true:                                        ; preds = %entry
  %1 = load i64, ptr %val.addr, align 8
  %2 = call i64 @llvm.ctlz.i64(i64 %1, i1 true)
  %cast = trunc i64 %2 to i32
  br label %cond.end

cond.false:                                       ; preds = %entry
  br label %cond.end

cond.end:                                         ; preds = %cond.false, %cond.true
  %cond = phi i32 [ %cast, %cond.true ], [ 64, %cond.false ]
  ret i32 %cond
}

; Function Attrs: nounwind sspstrong uwtable
define internal i64 @pow2floor(i64 noundef %value) #0 {
entry:
  %retval = alloca i64, align 8
  %value.addr = alloca i64, align 8
  store i64 %value, ptr %value.addr, align 8
  %0 = load i64, ptr %value.addr, align 8
  %tobool = icmp ne i64 %0, 0
  br i1 %tobool, label %if.end, label %if.then

if.then:                                          ; preds = %entry
  store i64 0, ptr %retval, align 8
  br label %return

if.end:                                           ; preds = %entry
  %1 = load i64, ptr %value.addr, align 8
  %call = call i32 @clz64(i64 noundef %1)
  %sh_prom = zext i32 %call to i64
  %shr = lshr i64 -9223372036854775808, %sh_prom
  store i64 %shr, ptr %retval, align 8
  br label %return

return:                                           ; preds = %if.end, %if.then
  %2 = load i64, ptr %retval, align 8
  ret i64 %2
}

; Function Attrs: nounwind sspstrong uwtable
define internal zeroext i1 @memory_region_is_romd(ptr noundef %mr) #0 {
entry:
  %mr.addr = alloca ptr, align 8
  store ptr %mr, ptr %mr.addr, align 8
  %0 = load ptr, ptr %mr.addr, align 8
  %rom_device = getelementptr inbounds %struct.MemoryRegion, ptr %0, i32 0, i32 6
  %1 = load i8, ptr %rom_device, align 1
  %tobool = trunc i8 %1 to i1
  br i1 %tobool, label %land.rhs, label %land.end

land.rhs:                                         ; preds = %entry
  %2 = load ptr, ptr %mr.addr, align 8
  %romd_mode = getelementptr inbounds %struct.MemoryRegion, ptr %2, i32 0, i32 1
  %3 = load i8, ptr %romd_mode, align 8
  %tobool1 = trunc i8 %3 to i1
  br label %land.end

land.end:                                         ; preds = %land.rhs, %entry
  %4 = phi i1 [ false, %entry ], [ %tobool1, %land.rhs ]
  ret i1 %4
}

; Function Attrs: nounwind sspstrong uwtable
define internal zeroext i1 @memory_region_is_ram(ptr noundef %mr) #0 {
entry:
  %mr.addr = alloca ptr, align 8
  store ptr %mr, ptr %mr.addr, align 8
  %0 = load ptr, ptr %mr.addr, align 8
  %ram = getelementptr inbounds %struct.MemoryRegion, ptr %0, i32 0, i32 2
  %1 = load i8, ptr %ram, align 1
  %tobool = trunc i8 %1 to i1
  ret i1 %tobool
}

; Function Attrs: nounwind sspstrong uwtable
define dso_local i32 @memory_access_size(ptr noundef %mr, i32 noundef %l, i64 noundef %addr) #0 {
entry:
  %mr.addr = alloca ptr, align 8
  %l.addr = alloca i32, align 4
  %addr.addr = alloca i64, align 8
  %access_size_max = alloca i32, align 4
  %align_size_max = alloca i32, align 4
  store ptr %mr, ptr %mr.addr, align 8
  store i32 %l, ptr %l.addr, align 4
  store i64 %addr, ptr %addr.addr, align 8
  %0 = load ptr, ptr %mr.addr, align 8
  %ops = getelementptr inbounds %struct.MemoryRegion, ptr %0, i32 0, i32 14
  %1 = load ptr, ptr %ops, align 16
  %valid = getelementptr inbounds %struct.MemoryRegionOps, ptr %1, i32 0, i32 5
  %max_access_size = getelementptr inbounds %struct.anon.16, ptr %valid, i32 0, i32 1
  %2 = load i32, ptr %max_access_size, align 4
  store i32 %2, ptr %access_size_max, align 4
  %3 = load i32, ptr %access_size_max, align 4
  %cmp = icmp eq i32 %3, 0
  br i1 %cmp, label %if.then, label %if.end

if.then:                                          ; preds = %entry
  store i32 4, ptr %access_size_max, align 4
  br label %if.end

if.end:                                           ; preds = %if.then, %entry
  %4 = load ptr, ptr %mr.addr, align 8
  %ops1 = getelementptr inbounds %struct.MemoryRegion, ptr %4, i32 0, i32 14
  %5 = load ptr, ptr %ops1, align 16
  %impl = getelementptr inbounds %struct.MemoryRegionOps, ptr %5, i32 0, i32 6
  %unaligned = getelementptr inbounds %struct.anon.17, ptr %impl, i32 0, i32 2
  %6 = load i8, ptr %unaligned, align 8
  %tobool = trunc i8 %6 to i1
  br i1 %tobool, label %if.end9, label %if.then2

if.then2:                                         ; preds = %if.end
  %7 = load i64, ptr %addr.addr, align 8
  %8 = load i64, ptr %addr.addr, align 8
  %sub = sub i64 0, %8
  %and = and i64 %7, %sub
  %conv = trunc i64 %and to i32
  store i32 %conv, ptr %align_size_max, align 4
  %9 = load i32, ptr %align_size_max, align 4
  %cmp3 = icmp ne i32 %9, 0
  br i1 %cmp3, label %land.lhs.true, label %if.end8

land.lhs.true:                                    ; preds = %if.then2
  %10 = load i32, ptr %align_size_max, align 4
  %11 = load i32, ptr %access_size_max, align 4
  %cmp5 = icmp ult i32 %10, %11
  br i1 %cmp5, label %if.then7, label %if.end8

if.then7:                                         ; preds = %land.lhs.true
  %12 = load i32, ptr %align_size_max, align 4
  store i32 %12, ptr %access_size_max, align 4
  br label %if.end8

if.end8:                                          ; preds = %if.then7, %land.lhs.true, %if.then2
  br label %if.end9

if.end9:                                          ; preds = %if.end8, %if.end
  %13 = load i32, ptr %l.addr, align 4
  %14 = load i32, ptr %access_size_max, align 4
  %cmp10 = icmp ugt i32 %13, %14
  br i1 %cmp10, label %if.then12, label %if.end13

if.then12:                                        ; preds = %if.end9
  %15 = load i32, ptr %access_size_max, align 4
  store i32 %15, ptr %l.addr, align 4
  br label %if.end13

if.end13:                                         ; preds = %if.then12, %if.end9
  %16 = load i32, ptr %l.addr, align 4
  %conv14 = zext i32 %16 to i64
  %call = call i64 @pow2floor(i64 noundef %conv14)
  %conv15 = trunc i64 %call to i32
  store i32 %conv15, ptr %l.addr, align 4
  %17 = load i32, ptr %l.addr, align 4
  ret i32 %17
}

; Function Attrs: nounwind sspstrong uwtable
define internal zeroext i1 @memory_access_is_direct(ptr noundef %mr, i1 noundef zeroext %is_write) #0 {
entry:
  %retval = alloca i1, align 1
  %mr.addr = alloca ptr, align 8
  %is_write.addr = alloca i8, align 1
  store ptr %mr, ptr %mr.addr, align 8
  %frombool = zext i1 %is_write to i8
  store i8 %frombool, ptr %is_write.addr, align 1
  %0 = load i8, ptr %is_write.addr, align 1
  %tobool = trunc i8 %0 to i1
  br i1 %tobool, label %if.then, label %if.else

if.then:                                          ; preds = %entry
  %1 = load ptr, ptr %mr.addr, align 8
  %call = call zeroext i1 @memory_region_is_ram(ptr noundef %1)
  br i1 %call, label %land.lhs.true, label %land.end

land.lhs.true:                                    ; preds = %if.then
  %2 = load ptr, ptr %mr.addr, align 8
  %readonly = getelementptr inbounds %struct.MemoryRegion, ptr %2, i32 0, i32 4
  %3 = load i8, ptr %readonly, align 1
  %tobool1 = trunc i8 %3 to i1
  br i1 %tobool1, label %land.end, label %land.lhs.true2

land.lhs.true2:                                   ; preds = %land.lhs.true
  %4 = load ptr, ptr %mr.addr, align 8
  %rom_device = getelementptr inbounds %struct.MemoryRegion, ptr %4, i32 0, i32 6
  %5 = load i8, ptr %rom_device, align 1
  %tobool3 = trunc i8 %5 to i1
  br i1 %tobool3, label %land.end, label %land.rhs

land.rhs:                                         ; preds = %land.lhs.true2
  %6 = load ptr, ptr %mr.addr, align 8
  %call4 = call zeroext i1 @memory_region_is_ram_device(ptr noundef %6)
  %lnot = xor i1 %call4, true
  br label %land.end

land.end:                                         ; preds = %land.rhs, %land.lhs.true2, %land.lhs.true, %if.then
  %7 = phi i1 [ false, %land.lhs.true2 ], [ false, %land.lhs.true ], [ false, %if.then ], [ %lnot, %land.rhs ]
  store i1 %7, ptr %retval, align 1
  br label %return

if.else:                                          ; preds = %entry
  %8 = load ptr, ptr %mr.addr, align 8
  %call5 = call zeroext i1 @memory_region_is_ram(ptr noundef %8)
  br i1 %call5, label %land.lhs.true6, label %lor.rhs

land.lhs.true6:                                   ; preds = %if.else
  %9 = load ptr, ptr %mr.addr, align 8
  %call7 = call zeroext i1 @memory_region_is_ram_device(ptr noundef %9)
  br i1 %call7, label %lor.rhs, label %lor.end

lor.rhs:                                          ; preds = %land.lhs.true6, %if.else
  %10 = load ptr, ptr %mr.addr, align 8
  %call8 = call zeroext i1 @memory_region_is_romd(ptr noundef %10)
  br label %lor.end

lor.end:                                          ; preds = %lor.rhs, %land.lhs.true6
  %11 = phi i1 [ true, %land.lhs.true6 ], [ %call8, %lor.rhs ]
  store i1 %11, ptr %retval, align 1
  br label %return

return:                                           ; preds = %lor.end, %land.end
  %12 = load i1, ptr %retval, align 1
  ret i1 %12
}

; Function Attrs: nounwind sspstrong uwtable
define dso_local ptr @flatview_translate(ptr noundef %fv, i64 noundef %addr, ptr noundef %xlat, ptr noundef %plen, i1 noundef zeroext %is_write, i32 %attrs.coerce) #0 {
entry:
  %attrs = alloca %struct.MemTxAttrs, align 4
  %fv.addr = alloca ptr, align 8
  %addr.addr = alloca i64, align 8
  %xlat.addr = alloca ptr, align 8
  %plen.addr = alloca ptr, align 8
  %is_write.addr = alloca i8, align 1
  %mr = alloca ptr, align 8
  %section = alloca %struct.MemoryRegionSection, align 16
  %as = alloca ptr, align 8
  %tmp = alloca %struct.MemoryRegionSection, align 16
  %coerce.dive = getelementptr inbounds %struct.MemTxAttrs, ptr %attrs, i32 0, i32 0
  store i32 %attrs.coerce, ptr %coerce.dive, align 4
  store ptr %fv, ptr %fv.addr, align 8
  store i64 %addr, ptr %addr.addr, align 8
  store ptr %xlat, ptr %xlat.addr, align 8
  store ptr %plen, ptr %plen.addr, align 8
  %frombool = zext i1 %is_write to i8
  store i8 %frombool, ptr %is_write.addr, align 1
  store ptr null, ptr %as, align 8
  %0 = load ptr, ptr %fv.addr, align 8
  %1 = load i64, ptr %addr.addr, align 8
  %2 = load ptr, ptr %xlat.addr, align 8
  %3 = load ptr, ptr %plen.addr, align 8
  %4 = load i8, ptr %is_write.addr, align 1
  %tobool = trunc i8 %4 to i1
  %coerce.dive1 = getelementptr inbounds %struct.MemTxAttrs, ptr %attrs, i32 0, i32 0
  %5 = load i32, ptr %coerce.dive1, align 4
  call void @flatview_do_translate(ptr sret(%struct.MemoryRegionSection) align 16 %tmp, ptr noundef %0, i64 noundef %1, ptr noundef %2, ptr noundef %3, ptr noundef null, i1 noundef zeroext %tobool, i1 noundef zeroext true, ptr noundef %as, i32 %5)
  call void @llvm.memcpy.p0.p0.i64(ptr align 16 %section, ptr align 16 %tmp, i64 64, i1 false)
  %mr2 = getelementptr inbounds %struct.MemoryRegionSection, ptr %section, i32 0, i32 1
  %6 = load ptr, ptr %mr2, align 16
  store ptr %6, ptr %mr, align 8
  %7 = load ptr, ptr %mr, align 8
  ret ptr %7
}

; Function Attrs: nounwind sspstrong uwtable
define internal zeroext i1 @flatview_access_valid(ptr noundef %fv, i64 noundef %addr, i64 noundef %len, i1 noundef zeroext %is_write, i32 %attrs.coerce) #0 {
entry:
  %retval = alloca i1, align 1
  %attrs = alloca %struct.MemTxAttrs, align 4
  %fv.addr = alloca ptr, align 8
  %addr.addr = alloca i64, align 8
  %len.addr = alloca i64, align 8
  %is_write.addr = alloca i8, align 1
  %mr = alloca ptr, align 8
  %l = alloca i64, align 8
  %xlat = alloca i64, align 8
  %coerce.dive = getelementptr inbounds %struct.MemTxAttrs, ptr %attrs, i32 0, i32 0
  store i32 %attrs.coerce, ptr %coerce.dive, align 4
  store ptr %fv, ptr %fv.addr, align 8
  store i64 %addr, ptr %addr.addr, align 8
  store i64 %len, ptr %len.addr, align 8
  %frombool = zext i1 %is_write to i8
  store i8 %frombool, ptr %is_write.addr, align 1
  br label %while.cond

while.cond:                                       ; preds = %if.end11, %entry
  %0 = load i64, ptr %len.addr, align 8
  %cmp = icmp ugt i64 %0, 0
  br i1 %cmp, label %while.body, label %while.end

while.body:                                       ; preds = %while.cond
  %1 = load i64, ptr %len.addr, align 8
  store i64 %1, ptr %l, align 8
  %2 = load ptr, ptr %fv.addr, align 8
  %3 = load i64, ptr %addr.addr, align 8
  %4 = load i8, ptr %is_write.addr, align 1
  %tobool = trunc i8 %4 to i1
  %coerce.dive1 = getelementptr inbounds %struct.MemTxAttrs, ptr %attrs, i32 0, i32 0
  %5 = load i32, ptr %coerce.dive1, align 4
  %call = call ptr @flatview_translate(ptr noundef %2, i64 noundef %3, ptr noundef %xlat, ptr noundef %l, i1 noundef zeroext %tobool, i32 %5)
  store ptr %call, ptr %mr, align 8
  %6 = load ptr, ptr %mr, align 8
  %7 = load i8, ptr %is_write.addr, align 1
  %tobool2 = trunc i8 %7 to i1
  %call3 = call zeroext i1 @memory_access_is_direct(ptr noundef %6, i1 noundef zeroext %tobool2)
  br i1 %call3, label %if.end11, label %if.then

if.then:                                          ; preds = %while.body
  %8 = load ptr, ptr %mr, align 8
  %9 = load i64, ptr %l, align 8
  %conv = trunc i64 %9 to i32
  %10 = load i64, ptr %addr.addr, align 8
  %call4 = call i32 @memory_access_size(ptr noundef %8, i32 noundef %conv, i64 noundef %10)
  %conv5 = sext i32 %call4 to i64
  store i64 %conv5, ptr %l, align 8
  %11 = load ptr, ptr %mr, align 8
  %12 = load i64, ptr %xlat, align 8
  %13 = load i64, ptr %l, align 8
  %conv6 = trunc i64 %13 to i32
  %14 = load i8, ptr %is_write.addr, align 1
  %tobool7 = trunc i8 %14 to i1
  %coerce.dive8 = getelementptr inbounds %struct.MemTxAttrs, ptr %attrs, i32 0, i32 0
  %15 = load i32, ptr %coerce.dive8, align 4
  %call9 = call zeroext i1 @memory_region_access_valid(ptr noundef %11, i64 noundef %12, i32 noundef %conv6, i1 noundef zeroext %tobool7, i32 %15)
  br i1 %call9, label %if.end, label %if.then10

if.then10:                                        ; preds = %if.then
  store i1 false, ptr %retval, align 1
  br label %return

if.end:                                           ; preds = %if.then
  br label %if.end11

if.end11:                                         ; preds = %if.end, %while.body
  %16 = load i64, ptr %l, align 8
  %17 = load i64, ptr %len.addr, align 8
  %sub = sub i64 %17, %16
  store i64 %sub, ptr %len.addr, align 8
  %18 = load i64, ptr %l, align 8
  %19 = load i64, ptr %addr.addr, align 8
  %add = add i64 %19, %18
  store i64 %add, ptr %addr.addr, align 8
  br label %while.cond, !llvm.loop !59

while.end:                                        ; preds = %while.cond
  store i1 true, ptr %retval, align 1
  br label %return

return:                                           ; preds = %while.end, %if.then10
  %20 = load i1, ptr %retval, align 1
  ret i1 %20
}