; Function Attrs: nounwind sspstrong uwtable
define internal fastcc noundef zeroext i1 @flatview_access_valid(ptr noundef readonly captures(none) %fv, i64 noundef %addr, i64 noundef %len, i1 noundef zeroext %is_write, i32 %attrs.coerce) unnamed_addr #0 {
entry:
  %as.i = alloca ptr, align 8
  %tmp.i = alloca %struct.MemoryRegionSection, align 16
  %l = alloca i64, align 8
  %xlat = alloca i64, align 8
  %cmp.not13 = icmp eq i64 %len, 0
  br i1 %cmp.not13, label %return, label %while.body.lr.ph

while.body.lr.ph:                                 ; preds = %entry
  %0 = getelementptr i8, ptr %fv, i64 40
  %section.sroa.1.0.tmp.sroa_idx.i = getelementptr inbounds nuw i8, ptr %tmp.i, i64 16
  br label %while.body

while.body:                                       ; preds = %while.body.lr.ph, %if.end11
  %addr.addr.015 = phi i64 [ %addr, %while.body.lr.ph ], [ %add, %if.end11 ]
  %len.addr.014 = phi i64 [ %len, %while.body.lr.ph ], [ %sub, %if.end11 ]
  store i64 %len.addr.014, ptr %l, align 8
  call void @llvm.lifetime.start.p0(i64 8, ptr nonnull %as.i)
  call void @llvm.lifetime.start.p0(i64 64, ptr nonnull %tmp.i)
  %fv.val.i = load ptr, ptr %0, align 8
  call fastcc void @flatview_do_translate(ptr noalias align 16 %tmp.i, ptr %fv.val.i, i64 noundef %addr.addr.015, ptr noundef nonnull %xlat, ptr noundef nonnull %l, ptr noundef null, i1 noundef zeroext %is_write, i1 noundef zeroext true, ptr noundef %as.i, i32 %attrs.coerce)
  %section.sroa.1.0.copyload.i = load ptr, ptr %section.sroa.1.0.tmp.sroa_idx.i, align 16
  call void @llvm.lifetime.end.p0(i64 8, ptr nonnull %as.i)
  call void @llvm.lifetime.end.p0(i64 64, ptr nonnull %tmp.i)
  %1 = getelementptr i8, ptr %section.sroa.1.0.copyload.i, i64 41
  %mr.val.i = load i8, ptr %1, align 1
  %tobool.i.i = trunc i8 %mr.val.i to i1
  br i1 %is_write, label %if.then.i, label %if.else.i

if.then.i:                                        ; preds = %while.body
  br i1 %tobool.i.i, label %land.lhs.true.i, label %if.then

land.lhs.true.i:                                  ; preds = %if.then.i
  %readonly.i = getelementptr inbounds nuw i8, ptr %section.sroa.1.0.copyload.i, i64 43
  %2 = load i8, ptr %readonly.i, align 1
  %tobool1.i = trunc i8 %2 to i1
  br i1 %tobool1.i, label %if.then, label %land.lhs.true2.i

land.lhs.true2.i:                                 ; preds = %land.lhs.true.i
  %rom_device.i = getelementptr inbounds nuw i8, ptr %section.sroa.1.0.copyload.i, i64 45
  %3 = load i8, ptr %rom_device.i, align 1
  %tobool3.i = trunc i8 %3 to i1
  br i1 %tobool3.i, label %if.then, label %land.rhs.i

land.rhs.i:                                       ; preds = %land.lhs.true2.i
  %call4.i = call zeroext i1 @memory_region_is_ram_device(ptr noundef nonnull %section.sroa.1.0.copyload.i) #28
  br i1 %call4.i, label %if.then, label %if.end11

if.else.i:                                        ; preds = %while.body
  br i1 %tobool.i.i, label %land.lhs.true6.i, label %lor.rhs.i

land.lhs.true6.i:                                 ; preds = %if.else.i
  %call7.i = call zeroext i1 @memory_region_is_ram_device(ptr noundef nonnull %section.sroa.1.0.copyload.i) #28
  br i1 %call7.i, label %lor.rhs.i, label %if.end11

lor.rhs.i:                                        ; preds = %land.lhs.true6.i, %if.else.i
  %rom_device.i.i = getelementptr inbounds nuw i8, ptr %section.sroa.1.0.copyload.i, i64 45
  %4 = load i8, ptr %rom_device.i.i, align 1
  %tobool.i9.i = trunc i8 %4 to i1
  br i1 %tobool.i9.i, label %memory_access_is_direct.exit, label %if.then

memory_access_is_direct.exit:                     ; preds = %lor.rhs.i
  %romd_mode.i.i = getelementptr inbounds nuw i8, ptr %section.sroa.1.0.copyload.i, i64 40
  %5 = load i8, ptr %romd_mode.i.i, align 8
  %tobool1.i.i = trunc i8 %5 to i1
  br i1 %tobool1.i.i, label %if.end11, label %if.then

if.then:                                          ; preds = %lor.rhs.i, %if.then.i, %land.lhs.true.i, %land.lhs.true2.i, %land.rhs.i, %memory_access_is_direct.exit
  %6 = load i64, ptr %l, align 8
  %conv = trunc i64 %6 to i32
  %ops.i = getelementptr inbounds nuw i8, ptr %section.sroa.1.0.copyload.i, i64 80
  %7 = load ptr, ptr %ops.i, align 16
  %max_access_size.i = getelementptr inbounds nuw i8, ptr %7, i64 44
  %8 = load i32, ptr %max_access_size.i, align 4
  %cmp.i = icmp eq i32 %8, 0
  %spec.store.select.i = select i1 %cmp.i, i32 4, i32 %8
  %unaligned.i = getelementptr inbounds nuw i8, ptr %7, i64 72
  %9 = load i8, ptr %unaligned.i, align 8
  %tobool.i = trunc i8 %9 to i1
  br i1 %tobool.i, label %memory_access_size.exit, label %if.then2.i

if.then2.i:                                       ; preds = %if.then
  %sub.i = sub i64 0, %addr.addr.015
  %and.i = and i64 %addr.addr.015, %sub.i
  %conv.i = trunc i64 %and.i to i32
  %cmp3.not.not.i = icmp eq i32 %conv.i, 0
  %10 = call i32 @llvm.umin.i32(i32 %spec.store.select.i, i32 %conv.i)
  %spec.select10.i = select i1 %cmp3.not.not.i, i32 %spec.store.select.i, i32 %10
  br label %memory_access_size.exit

memory_access_size.exit:                          ; preds = %if.then, %if.then2.i
  %access_size_max.0.i = phi i32 [ %spec.store.select.i, %if.then ], [ %spec.select10.i, %if.then2.i ]
  %spec.select.i = call i32 @llvm.umin.i32(i32 %conv, i32 %access_size_max.0.i)
  %conv14.i = zext i32 %spec.select.i to i64
  %tobool.not.i.i = icmp eq i32 %spec.select.i, 0
  %11 = call range(i64 32, 65) i64 @llvm.ctlz.i64(i64 range(i64 1, 4294967296) %conv14.i, i1 true)
  %shr.i.i = lshr exact i64 -9223372036854775808, %11
  %12 = trunc nuw i64 %shr.i.i to i32
  %conv15.i = select i1 %tobool.not.i.i, i32 0, i32 %12
  %conv5 = sext i32 %conv15.i to i64
  store i64 %conv5, ptr %l, align 8
  %13 = load i64, ptr %xlat, align 8
  %call9 = call zeroext i1 @memory_region_access_valid(ptr noundef nonnull %section.sroa.1.0.copyload.i, i64 noundef %13, i32 noundef %conv15.i, i1 noundef zeroext %is_write, i32 %attrs.coerce) #28
  br i1 %call9, label %if.end11, label %return

if.end11:                                         ; preds = %land.lhs.true6.i, %land.rhs.i, %memory_access_size.exit, %memory_access_is_direct.exit
  %14 = load i64, ptr %l, align 8
  %sub = sub i64 %len.addr.014, %14
  %add = add i64 %14, %addr.addr.015
  %cmp.not = icmp eq i64 %sub, 0
  br i1 %cmp.not, label %return, label %while.body, !llvm.loop !76

return:                                           ; preds = %memory_access_size.exit, %if.end11, %entry
  %cmp.not.lcssa = phi i1 [ true, %entry ], [ true, %if.end11 ], [ false, %memory_access_size.exit ]
  ret i1 %cmp.not.lcssa
}